(dp1
(Vtest
S'success'
tp2
ccopy_reg
_reconstructor
p3
(cpyspider.libs.counter
TotalCounter
p4
c__builtin__
object
p5
NtRp6
(dp7
S'cnt'
p8
I378
sbs(Vtest2
p9
S'pending'
p10
tp11
g3
(g4
g5
NtRp12
(dp13
g8
I0
sbs(g9
S'success'
p14
tp15
g3
(g4
g5
NtRp16
(dp17
g8
I0
sbs(g9
S'failed'
p18
tp19
g3
(g4
g5
NtRp20
(dp21
g8
I0
sbs.